target datalayout = "e-m:e-p270:32:32-p271:32:32-p272:64:64-i64:64-i128:128-f80:128-n8:16:32:64-S128"
target triple = "x86_64-pc-linux-gnu"

@hs_misc_alloc = external global ptr, align 8
@hs_misc_free = external global ptr, align 8
@.str = private unnamed_addr constant [1 x i8] zeroinitializer, align 1
@.str.1 = private unnamed_addr constant [5 x i8] c"AVX2\00", align 1
@.str.2 = private unnamed_addr constant [7 x i8] c"AVX512\00", align 1
@.str.3 = private unnamed_addr constant [11 x i8] c"AVX512VBMI\00", align 1
@.str.4 = private unnamed_addr constant [7 x i8] c"STREAM\00", align 1
@.str.5 = private unnamed_addr constant [9 x i8] c"VECTORED\00", align 1
@.str.6 = private unnamed_addr constant [6 x i8] c"BLOCK\00", align 1
@.str.7 = private unnamed_addr constant [40 x i8] c"Version: %u.%u.%u Features: %s Mode: %s\00", align 1

; Function Attrs: alwaysinline nounwind uwtable
define internal i32 @hs_check_alloc(ptr noundef %0) #1 {
  %2 = alloca ptr, align 8
  %3 = alloca i32, align 4
  store ptr %0, ptr %2, align 8
  call void @llvm.lifetime.start.p0(i64 4, ptr %3) #8
  store i32 0, ptr %3, align 4
  %4 = load ptr, ptr %2, align 8
  %5 = icmp ne ptr %4, null
  br i1 %5, label %7, label %6

6:                                                ; preds = %1
  store i32 -2, ptr %3, align 4
  br label %14

7:                                                ; preds = %1
  %8 = load ptr, ptr %2, align 8
  %9 = ptrtoint ptr %8 to i64
  %10 = and i64 %9, 7
  %11 = icmp eq i64 %10, 0
  br i1 %11, label %13, label %12

12:                                               ; preds = %7
  store i32 -9, ptr %3, align 4
  br label %13

13:                                               ; preds = %12, %7
  br label %14

14:                                               ; preds = %13, %6
  %15 = load i32, ptr %3, align 4
  call void @llvm.lifetime.end.p0(i64 4, ptr %3) #8
  ret i32 %15
}

; Function Attrs: nounwind uwtable
define internal i32 @print_database_string(ptr noundef %0, i32 noundef %1, i64 noundef %2, i32 noundef %3) #0 {
  %5 = alloca i32, align 4
  %6 = alloca ptr, align 8
  %7 = alloca i32, align 4
  %8 = alloca i64, align 8
  %9 = alloca i32, align 4
  %10 = alloca i8, align 1
  %11 = alloca i8, align 1
  %12 = alloca i8, align 1
  %13 = alloca ptr, align 8
  %14 = alloca ptr, align 8
  %15 = alloca i64, align 8
  %16 = alloca ptr, align 8
  %17 = alloca i32, align 4
  %18 = alloca i32, align 4
  %19 = alloca i32, align 4
  store ptr %0, ptr %6, align 8
  store i32 %1, ptr %7, align 4
  store i64 %2, ptr %8, align 8
  store i32 %3, ptr %9, align 4
  %20 = load ptr, ptr %6, align 8
  store ptr null, ptr %20, align 8
  call void @llvm.lifetime.start.p0(i64 1, ptr %10) #8
  %21 = load i32, ptr %7, align 4
  %22 = lshr i32 %21, 8
  %23 = and i32 %22, 255
  %24 = trunc i32 %23 to i8
  store i8 %24, ptr %10, align 1
  call void @llvm.lifetime.start.p0(i64 1, ptr %11) #8
  %25 = load i32, ptr %7, align 4
  %26 = lshr i32 %25, 16
  %27 = and i32 %26, 255
  %28 = trunc i32 %27 to i8
  store i8 %28, ptr %11, align 1
  call void @llvm.lifetime.start.p0(i64 1, ptr %12) #8
  %29 = load i32, ptr %7, align 4
  %30 = lshr i32 %29, 24
  %31 = and i32 %30, 255
  %32 = trunc i32 %31 to i8
  store i8 %32, ptr %12, align 1
  call void @llvm.lifetime.start.p0(i64 8, ptr %13) #8
  %33 = load i64, ptr %8, align 8
  %34 = and i64 %33, 131072
  %35 = icmp ne i64 %34, 0
  br i1 %35, label %36, label %48

36:                                               ; preds = %4
  %37 = load i64, ptr %8, align 8
  %38 = and i64 %37, 65536
  %39 = icmp ne i64 %38, 0
  br i1 %39, label %40, label %45

40:                                               ; preds = %36
  %41 = load i64, ptr %8, align 8
  %42 = and i64 %41, 32768
  %43 = icmp ne i64 %42, 0
  %44 = select i1 %43, ptr @.str, ptr @.str.1
  br label %46

45:                                               ; preds = %36
  br label %46

46:                                               ; preds = %45, %40
  %47 = phi ptr [ %44, %40 ], [ @.str.2, %45 ]
  br label %49

48:                                               ; preds = %4
  br label %49

49:                                               ; preds = %48, %46
  %50 = phi ptr [ %47, %46 ], [ @.str.3, %48 ]
  store ptr %50, ptr %13, align 8
  call void @llvm.lifetime.start.p0(i64 8, ptr %14) #8
  store ptr null, ptr %14, align 8
  %51 = load i32, ptr %9, align 4
  %52 = icmp eq i32 %51, 2
  br i1 %52, label %53, label %54

53:                                               ; preds = %49
  store ptr @.str.4, ptr %14, align 8
  br label %60

54:                                               ; preds = %49
  %55 = load i32, ptr %9, align 4
  %56 = icmp eq i32 %55, 4
  br i1 %56, label %57, label %58

57:                                               ; preds = %54
  store ptr @.str.5, ptr %14, align 8
  br label %59

58:                                               ; preds = %54
  store ptr @.str.6, ptr %14, align 8
  br label %59

59:                                               ; preds = %58, %57
  br label %60

60:                                               ; preds = %59, %53
  call void @llvm.lifetime.start.p0(i64 8, ptr %15) #8
  store i64 256, ptr %15, align 8
  br label %61

61:                                               ; preds = %113, %60
  br label %62

62:                                               ; preds = %61
  call void @llvm.lifetime.start.p0(i64 8, ptr %16) #8
  %63 = load ptr, ptr @hs_misc_alloc, align 8
  %64 = load i64, ptr %15, align 8
  %65 = call ptr %63(i64 noundef %64)
  store ptr %65, ptr %16, align 8
  call void @llvm.lifetime.start.p0(i64 4, ptr %17) #8
  %66 = load ptr, ptr %16, align 8
  %67 = call i32 @hs_check_alloc(ptr noundef %66)
  store i32 %67, ptr %17, align 4
  %68 = load i32, ptr %17, align 4
  %69 = icmp ne i32 %68, 0
  br i1 %69, label %70, label %74

70:                                               ; preds = %62
  %71 = load ptr, ptr @hs_misc_free, align 8
  %72 = load ptr, ptr %16, align 8
  call void %71(ptr noundef %72)
  %73 = load i32, ptr %17, align 4
  store i32 %73, ptr %5, align 4
  store i32 1, ptr %18, align 4
  br label %111

74:                                               ; preds = %62
  call void @llvm.lifetime.start.p0(i64 4, ptr %19) #8
  %75 = load ptr, ptr %16, align 8
  %76 = load i64, ptr %15, align 8
  %77 = load i8, ptr %12, align 1
  %78 = zext i8 %77 to i32
  %79 = load i8, ptr %11, align 1
  %80 = zext i8 %79 to i32
  %81 = load i8, ptr %10, align 1
  %82 = zext i8 %81 to i32
  %83 = load ptr, ptr %13, align 8
  %84 = load ptr, ptr %14, align 8
  %85 = call i32 (ptr, i64, ptr, ...) @snprintf(ptr noundef %75, i64 noundef %76, ptr noundef @.str.7, i32 noundef %78, i32 noundef %80, i32 noundef %82, ptr noundef %83, ptr noundef %84) #8
  store i32 %85, ptr %19, align 4
  %86 = load i32, ptr %19, align 4
  %87 = icmp slt i32 %86, 0
  br i1 %87, label %88, label %94

88:                                               ; preds = %74
  br label %89

89:                                               ; preds = %88
  br label %90

90:                                               ; preds = %89
  br label %91

91:                                               ; preds = %90
  %92 = load ptr, ptr @hs_misc_free, align 8
  %93 = load ptr, ptr %16, align 8
  call void %92(ptr noundef %93)
  store i32 3, ptr %18, align 4
  br label %110

94:                                               ; preds = %74
  %95 = load i32, ptr %19, align 4
  %96 = sext i32 %95 to i64
  %97 = load i64, ptr %15, align 8
  %98 = icmp ult i64 %96, %97
  br i1 %98, label %99, label %102

99:                                               ; preds = %94
  %100 = load ptr, ptr %16, align 8
  %101 = load ptr, ptr %6, align 8
  store ptr %100, ptr %101, align 8
  store i32 0, ptr %5, align 4
  store i32 1, ptr %18, align 4
  br label %110

102:                                              ; preds = %94
  %103 = load i32, ptr %19, align 4
  %104 = sext i32 %103 to i64
  %105 = add i64 %104, 1
  store i64 %105, ptr %15, align 8
  %106 = load ptr, ptr @hs_misc_free, align 8
  %107 = load ptr, ptr %16, align 8
  call void %106(ptr noundef %107)
  br label %108

108:                                              ; preds = %102
  br label %109

109:                                              ; preds = %108
  store i32 0, ptr %18, align 4
  br label %110

110:                                              ; preds = %109, %99, %91
  call void @llvm.lifetime.end.p0(i64 4, ptr %19) #8
  br label %111

111:                                              ; preds = %110, %70
  call void @llvm.lifetime.end.p0(i64 4, ptr %17) #8
  call void @llvm.lifetime.end.p0(i64 8, ptr %16) #8
  %112 = load i32, ptr %18, align 4
  switch i32 %112, label %115 [
    i32 0, label %113
    i32 3, label %114
  ]

113:                                              ; preds = %111
  br label %61

114:                                              ; preds = %111
  store i32 -2, ptr %5, align 4
  store i32 1, ptr %18, align 4
  br label %115

115:                                              ; preds = %114, %111
  call void @llvm.lifetime.end.p0(i64 8, ptr %15) #8
  call void @llvm.lifetime.end.p0(i64 8, ptr %14) #8
  call void @llvm.lifetime.end.p0(i64 8, ptr %13) #8
  call void @llvm.lifetime.end.p0(i64 1, ptr %12) #8
  call void @llvm.lifetime.end.p0(i64 1, ptr %11) #8
  call void @llvm.lifetime.end.p0(i64 1, ptr %10) #8
  %116 = load i32, ptr %5, align 4
  ret i32 %116
}