; Function Attrs: nounwind uwtable
define internal fastcc range(i32 -9, 1) i32 @print_database_string(ptr noundef nonnull writeonly captures(none) initializes((0, 8)) %0, i32 noundef %1, i64 noundef %2, i32 noundef %3) unnamed_addr #0 {
  store ptr null, ptr %0, align 8
  %5 = lshr i32 %1, 8
  %6 = lshr i32 %1, 16
  %7 = lshr i32 %1, 24
  %8 = and i64 %2, 131072
  %.not = icmp eq i64 %8, 0
  br i1 %.not, label %14, label %9

9:                                                ; preds = %4
  %10 = and i64 %2, 65536
  %.not40 = icmp eq i64 %10, 0
  %11 = and i64 %2, 32768
  %.not41 = icmp eq i64 %11, 0
  %12 = select i1 %.not41, ptr @.str.1, ptr @.str
  %13 = select i1 %.not40, ptr @.str.2, ptr %12
  br label %14

14:                                               ; preds = %4, %9
  %15 = phi ptr [ %13, %9 ], [ @.str.3, %4 ]
  %switch.selectcmp = icmp eq i32 %3, 4
  %switch.select = select i1 %switch.selectcmp, ptr @.str.5, ptr @.str.6
  %switch.selectcmp43 = icmp eq i32 %3, 2
  %switch.select44 = select i1 %switch.selectcmp43, ptr @.str.4, ptr %switch.select
  %16 = load ptr, ptr @hs_misc_alloc, align 8
  %17 = tail call ptr %16(i64 noundef 256) #6
  %.not.i59 = icmp ne ptr %17, null
  %18 = ptrtoint ptr %17 to i64
  %19 = and i64 %18, 7
  %20 = icmp eq i64 %19, 0
  %.not4260 = and i1 %.not.i59, %20
  br i1 %.not4260, label %.lr.ph, label %._crit_edge

.lr.ph:                                           ; preds = %14
  %21 = and i32 %6, 255
  %22 = and i32 %5, 255
  br label %24

._crit_edge:                                      ; preds = %32, %14
  %.lcssa56 = phi ptr [ %17, %14 ], [ %36, %32 ]
  %.not.i.lcssa = phi i1 [ %.not.i59, %14 ], [ %.not.i, %32 ]
  %.lcssa = phi i1 [ %20, %14 ], [ %39, %32 ]
  %spec.select.i = select i1 %.lcssa, i32 0, i32 -9
  %.0.i = select i1 %.not.i.lcssa, i32 %spec.select.i, i32 -2
  %23 = load ptr, ptr @hs_misc_free, align 8
  tail call void %23(ptr noundef %.lcssa56) #6
  br label %.thread

24:                                               ; preds = %.lr.ph, %32
  %25 = phi ptr [ %17, %.lr.ph ], [ %36, %32 ]
  %.03361 = phi i64 [ 256, %.lr.ph ], [ %33, %32 ]
  %26 = tail call i32 (ptr, i64, ptr, ...) @snprintf(ptr noundef nonnull dereferenceable(1) %25, i64 noundef %.03361, ptr noundef nonnull @.str.7, i32 noundef %7, i32 noundef %21, i32 noundef %22, ptr noundef %15, ptr noundef nonnull %switch.select44) #6
  %27 = icmp slt i32 %26, 0
  br i1 %27, label %40, label %28

28:                                               ; preds = %24
  %29 = zext nneg i32 %26 to i64
  %30 = icmp ugt i64 %.03361, %29
  br i1 %30, label %31, label %32

31:                                               ; preds = %28
  store ptr %25, ptr %0, align 8
  br label %.thread

32:                                               ; preds = %28
  %33 = add nuw nsw i64 %29, 1
  %34 = load ptr, ptr @hs_misc_free, align 8
  tail call void %34(ptr noundef nonnull %25) #6
  %35 = load ptr, ptr @hs_misc_alloc, align 8
  %36 = tail call ptr %35(i64 noundef %33) #6
  %.not.i = icmp ne ptr %36, null
  %37 = ptrtoint ptr %36 to i64
  %38 = and i64 %37, 7
  %39 = icmp eq i64 %38, 0
  %.not42 = and i1 %.not.i, %39
  br i1 %.not42, label %24, label %._crit_edge

40:                                               ; preds = %24
  %41 = load ptr, ptr @hs_misc_free, align 8
  tail call void %41(ptr noundef nonnull %25) #6
  br label %.thread

.thread:                                          ; preds = %31, %._crit_edge, %40
  %.3 = phi i32 [ -2, %40 ], [ 0, %31 ], [ %.0.i, %._crit_edge ]
  ret i32 %.3
}